target datalayout = "e-m:e-p270:32:32-p271:32:32-p272:64:64-i64:64-i128:128-f80:128-n8:16:32:64-S128"
target triple = "x86_64-pc-linux-gnu"

%struct.AVRational = type { i32, i32 }
%struct.AVBufferRef = type { ptr, ptr, i64 }
%struct.AVPacket = type { ptr, i64, i64, ptr, i32, i32, i32, ptr, i32, i64, i64, ptr, ptr, %struct.AVRational }

; Function Attrs: nounwind uwtable
define ptr @packet_data_c(ptr noundef %0) #0 {
  %2 = alloca ptr, align 8
  %3 = alloca i32, align 4
  store ptr %0, ptr %2, align 8, !tbaa !96
  call void @llvm.lifetime.start.p0(i64 4, ptr %3) #12
  %4 = load ptr, ptr %2, align 8, !tbaa !96
  %5 = getelementptr inbounds nuw %struct.AVPacket, ptr %4, i32 0, i32 12
  %6 = call i32 @frame_data_ensure(ptr noundef %5, i32 noundef 0)
  store i32 %6, ptr %3, align 4, !tbaa !4
  %7 = load i32, ptr %3, align 4, !tbaa !4
  %8 = icmp slt i32 %7, 0
  br i1 %8, label %9, label %10

9:                                                ; preds = %1
  br label %16

10:                                               ; preds = %1
  %11 = load ptr, ptr %2, align 8, !tbaa !96
  %12 = getelementptr inbounds nuw %struct.AVPacket, ptr %11, i32 0, i32 12
  %13 = load ptr, ptr %12, align 8, !tbaa !98
  %14 = getelementptr inbounds nuw %struct.AVBufferRef, ptr %13, i32 0, i32 1
  %15 = load ptr, ptr %14, align 8, !tbaa !82
  br label %16

16:                                               ; preds = %10, %9
  %17 = phi ptr [ null, %9 ], [ %15, %10 ]
  call void @llvm.lifetime.end.p0(i64 4, ptr %3) #12
  ret ptr %17
}